; Function Attrs: mustprogress uwtable
define void @_ZN4base8internal12CopyToStringERKNS_16BasicStringPieceINSt7__cxx1112basic_stringItNS_20string16_char_traitsESaItEEEEEPS6_(ptr noundef nonnull readonly align 8 captures(none) dereferenceable(16) %0, ptr noundef %1) local_unnamed_addr #1 personality ptr @__gxx_personality_v0 {
  %3 = getelementptr inbounds nuw i8, ptr %0, i64 8
  %4 = load i64, ptr %3, align 8, !tbaa !38
  %5 = icmp eq i64 %4, 0
  br i1 %5, label %6, label %9

6:                                                ; preds = %2
  %7 = getelementptr inbounds nuw i8, ptr %1, i64 8
  store i64 0, ptr %7, align 8, !tbaa !42
  %8 = load ptr, ptr %1, align 8, !tbaa !39
  store i16 0, ptr %8, align 2, !tbaa !44
  br label %_ZN4base8internal13CopyToStringTINSt7__cxx1112basic_stringItNS_20string16_char_traitsESaItEEEEEvRKNS_16BasicStringPieceIT_EEPS8_.exit

9:                                                ; preds = %2
  %10 = load ptr, ptr %0, align 8, !tbaa !35
  %11 = getelementptr inbounds nuw i8, ptr %1, i64 8
  %12 = load i64, ptr %11, align 8, !tbaa !42
  %13 = tail call noundef nonnull align 8 dereferenceable(32) ptr @_ZNSt7__cxx1112basic_stringItN4base20string16_char_traitsESaItEE10_M_replaceEmmPKtm(ptr noundef nonnull align 8 dereferenceable(32) %1, i64 noundef 0, i64 noundef %12, ptr noundef %10, i64 noundef %4)
  br label %_ZN4base8internal13CopyToStringTINSt7__cxx1112basic_stringItNS_20string16_char_traitsESaItEEEEEvRKNS_16BasicStringPieceIT_EEPS8_.exit

_ZN4base8internal13CopyToStringTINSt7__cxx1112basic_stringItNS_20string16_char_traitsESaItEEEEEvRKNS_16BasicStringPieceIT_EEPS8_.exit: ; preds = %6, %9
  ret void
}